[0m[0m    [0m.text[0m                                                 [0m ┃ [0m[0m    [0m.text[0m                                                 
[0m[0m    [0m.file    [0m"f"[0m                                          [0m ┃ [0m[0m    [0m.file    [0m"f"[0m                                          
[0m[0m    [0m.globl    [0mf                    [90m# -- Begin function f[39m[0m  [0m ┃ [0m[0m    [0m.globl    [0mf                    [90m# -- Begin function f[39m[0m  
[0m[0m    [0m.p2align    [33m4[39m[0m, [33m0x90[39m[0m                                   [0m ┃ [0m[0m    [0m.p2align    [33m4[39m[0m, [33m0x90[39m[0m                                   
[0m[0m    [0m.type    [0mf[0m,[0m@function[0m                                  [0m ┃ [0m[0m    [0m.type    [0mf[0m,[0m@function[0m                                  
[0m[0m[91mf:[39m                           [90m# @f[39m[0m                         [0m ┃ [0m[0m[91mf:[39m                           [90m# @f[39m[0m                         
[0m[0m    [0m.cfi_startproc[0m                                        [0m ┃ [0m[0m    [0m.cfi_startproc[0m                                        
[0m[0m[90m# %bb.0:                                # %top[39m[0m            [0m ┃ [0m[0m[90m# %bb.0:                                # %top[39m[0m            
[0m[0m    [96m[1mpush[22m[39m    [0mrbp[0m                                           [0m ┃ [0m[0m    [96m[1mpush[22m[39m    [0mrbp[0m                                           
[0m[0m    [0m.cfi_def_cfa_offset [33m16[39m[0m                                [0m ┃ [0m[0m    [0m.cfi_def_cfa_offset [33m16[39m[0m                                
[0m[0m    [0m.cfi_offset [0mrbp[0m, [33m-16[39m[0m                                  [0m ┃ [0m[0m    [0m.cfi_offset [0mrbp[0m, [33m-16[39m[0m                                  
[0m[0m    [96m[1mmov[22m[39m    [0mrbp[0m, [0mrsp[0m                                       [0m ┃ [0m[0m    [96m[1mmov[22m[39m    [0mrbp[0m, [0mrsp[0m                                       
[0m[0m    [0m.cfi_def_cfa_register [0mrbp[0m                             [0m ┃ [0m[0m    [0m.cfi_def_cfa_register [0mrbp[0m                             
[0m[0m    [96m[1mmov[22m[39m    [0meax[0m, [33m1[39m[0m                                         [0m ┃ [0m[0m    [96m[1mmov[22m[39m    [0meax[0m, [33m1[39m[0m                                         
[0m[0m    [96m[1mpop[22m[39m    [0mrbp[0m                                            [0m ┃ [0m[0m    [96m[1mpop[22m[39m    [0mrbp[0m                                            
[0m[0m    [96m[1mret[22m[39m[0m                                                   [0m ┃ [0m[0m    [96m[1mret[22m[39m[0m                                                   
[0m[0m[91m.Lfunc_end0:[39m[0m                                              [0m ┃ [0m[0m[91m.Lfunc_end0:[39m[0m                                              
[0m[0m    [0m.size    [0mf[0m, [0m.Lfunc_end0-f[0m                             [0m ┃ [0m[0m    [0m.size    [0mf[0m, [0m.Lfunc_end0-f[0m                             
[0m[0m    [0m.cfi_endproc[0m                                          [0m ┃ [0m[0m    [0m.cfi_endproc[0m                                          
[0m[0m                                        [90m# -- End function[39m[0m [0m ┃ [0m[0m                                        [90m# -- End function[39m[0m 
[0m[0m    [0m.section    [0m".note.GNU-stack"[0m,[0m""[0m,[0m@progbits[0m            [0m ┃ [0m[0m    [0m.section    [0m".note.GNU-stack"[0m,[0m""[0m,[0m@progbits[0m            
[0m                                                          [0m ┃ [0m                                                          