[0m[0m    [0m.text[0m                                                 [0m ┃ [0m[0m    [0m.text[0m                                                 
[0m[0m    [0m.file    [0m"saxpy"[0m                                      [0m⟪╋⟫[0m[0m    [0m.file    [0m"saxpy[42m_simd[49m"[0m                                 
[0m[0m    [0m.globl    [0msaxpy[41m     [49m           [90m# -- Begin function sa…[39m[0m⟪╋⟫[0m[0m    [0m.globl    [0msaxpy[42m_simd[49m           [90m# -- Begin function sa…[39m[42m[49m
[0m[0m    [0m.p2align    [33m4[39m[0m, [33m0x90[39m[0m                                   [0m ┃ [0m[0m    [0m.p2align    [33m4[39m[0m, [33m0x90[39m[0m                                   
[0m[0m    [0m.type    [0msaxpy[0m[0m,@function[0m                              [0m⟪╋⟫[0m[0m    [0m.type    [0msaxpy[0m[42m_[0m[42msimd[49m,@function[0m                         
[0m[0m[91msaxpy[39m:[41m     [49m                  [90m# @saxpy[39m[0m                     [0m⟪╋⟫[0m[0m[91msaxpy[42m_[39msimd[49m:                  [90m# @saxpy[39m[42m_simd[49m[0m                
[0m[0m    [0m.cfi_startproc[0m                                        [0m ┃ [0m[0m    [0m.cfi_startproc[0m                                        
[0m[0m[90m# %bb.0:                                # %top[39m[0m            [0m ┃ [0m[0m[90m# %bb.0:                                # %top[39m[0m            
[0m[0m    [96m[1mpush[22m[39m    [0mrbp[0m                                           [0m ┃ [0m[0m    [96m[1mpush[22m[39m    [0mrbp[0m                                           
[0m[0m    [0m.cfi_def_cfa_offset [33m16[39m[0m                                [0m ┃ [0m[0m    [0m.cfi_def_cfa_offset [33m16[39m[0m                                
[0m[0m    [0m.cfi_offset [0mrbp[0m, [33m-16[39m[0m                                  [0m ┃ [0m[0m    [0m.cfi_offset [0mrbp[0m, [33m-16[39m[0m                                  
[0m[0m    [96m[1mmov[22m[39m    [0mrbp[0m, [0mrsp[0m                                       [0m ┃ [0m[0m    [96m[1mmov[22m[39m    [0mrbp[0m, [0mrsp[0m                                       
[0m[0m    [0m.cfi_def_cfa_register [0mrbp[0m                             [0m ┃ [0m[0m    [0m.cfi_def_cfa_register [0mrbp[0m                             
[0m[0m    [96m[1mpush[22m[39m    [0mr15[0m                                           [0m⟪┫ [0m                                                          
[0m[0m    [96m[1mpush[22m[39m    [0mr14[0m                                           [0m⟪┫ [0m                                                          
[0m[0m    [96m[1mpush[22m[39m    [0mr13[0m                                           [0m⟪┫ [0m                                                          
[0m[0m    [96m[1mpush[22m[39m    [0mr12[0m                                           [0m⟪┫ [0m                                                          
[0m[0m    [96m[1mpush[22m[39m    [0mrsi[0m                                           [0m ┃ [0m[0m    [96m[1mpush[22m[39m    [0mrsi[0m                                           
[0m[0m    [96m[1mpush[22m[39m    [0mrdi[0m                                           [0m ┃ [0m[0m    [96m[1mpush[22m[39m    [0mrdi[0m                                           
[0m[0m    [96m[1mpush[22m[39m    [0mrbx[0m                                           [0m⟪┫ [0m                                                          
[0m[0m    [96m[1msub[22m[39m    [0mrsp[0m, [33m[41m7[49m2[39m[0m                                        [0m⟪╋⟫[0m[0m    [96m[1msub[22m[39m    [0mrsp[0m, [33m[42m3[49m2[39m[0m                                        
[0m[0m    [96m[1mvmovdqa[22m[39m    [95mxmmword[39m [95mptr[39m [33m[[39m[0mrbp [0m- [33m[41m80[39m[33m[49m][39m[0m, [0mxmm7    [90m# 16-byte …[39m[0m⟪╋⟫[0m[0m    [96m[1mvmovdqa[22m[39m    [95mxmmword[39m [95mptr[39m [33m[[39m[0mrbp [0m- [33m[42m32[39m[33m[49m][39m[0m, [0mxmm7    [90m# 16-byte …[39m
[0m[0m    [96m[1mvmovdqa[22m[39m    [95mxmmword[39m [95mptr[39m [33m[[39m[0mrbp [0m- [33m[41m96[39m[33m[49m][39m[0m, [0mxmm6    [90m# 16-byte …[39m[0m⟪╋⟫[0m[0m    [96m[1mvmovdqa[22m[39m    [95mxmmword[39m [95mptr[39m [33m[[39m[0mrbp [0m- [33m[42m48[39m[33m[49m][39m[0m, [0mxmm6    [90m# 16-byte …[39m
[0m[0m    [0m.cfi_offset [0mr[41mbx[0m, [33m-[41m7[49m2[39m[0m                                  [0m⟪╋⟫[0m[0m    [0m.cfi_offset [0mr[42mdi[0m, [33m-[42m3[49m2[39m[0m                                  
[0m[0m    [0m.cfi_offset [0mr[41md[49mi[0m, [33m-[41m6[49m4[39m[0m                                  [0m⟪╋⟫[0m[0m    [0m.cfi_offset [0mr[42ms[49mi[0m, [33m-[42m2[49m4[39m[0m                                  
[0m[0m    [0m.cfi_offset [0m[41mrsi[0m, [33m-[41m5[49m6[39m[0m                                  [0m⟪╋⟫[0m[0m    [0m.cfi_offset [0m[42mxmm[0m[42m6[49m, [33m-6[39m[42m4[49m[0m                                 
[0m[0m    [0m.cfi_offset [0m[41mr12[0m, [33m-48[39m[0m                                  [0m⟪╋⟫[0m[0m    [0m.cfi_offset [0m[42mxmm[0m[42m7[49m, [33m-48[39m[0m                                 
[0m[0m    [0m.cfi_offset [0mr13[0m, [33m-40[39m[0m                                  [0m⟪┫ [0m                                                          
[0m[0m    [0m.cfi_offset [0mr14[0m, [33m-32[39m[0m                                  [0m⟪┫ [0m                                                          
[0m[0m    [0m.cfi_offset [0mr15[0m, [33m-24[39m[0m                                  [0m⟪┫ [0m                                                          
[0m[0m    [0m.cfi_offset [0mxmm6[0m, [33m-112[39m[0m                                [0m⟪┫ [0m                                                          
[0m[0m    [0m.cfi_offset [0mxmm7[0m, [33m-96[39m[0m                                 [0m⟪┫ [0m                                                          
[0m[0m    [96m[1mmov[22m[39m    [0mr13[0m, [0mr8[0m                                        [0m⟪┫ [0m                                                          
[0m[0m    [96m[1mmov[22m[39m    [0mr[41m8[0m, [95mqword[39m [95mptr[39m [33m[[39m[0mrcx [0m+ [33m8[39m[33m][39m[0m                        [0m⟪╋⟫[0m[0m    [96m[1mmov[22m[39m    [0mr[42m1[0m[42m0[49m, [95mqword[39m [95mptr[39m [33m[[39m[0mrcx [0m+ [33m8[39m[33m][39m[0m                       
[0m[0m    [96m[1mtest[22m[39m    [0mr[41m8[0m, [0mr[41m8[49m[0m                                        [0m⟪╋⟫[0m[0m    [96m[1mtest[22m[39m    [0mr[42m1[0m[42m0[49m, [0mr[42m10[49m[0m                                      
[0m[0m    [96m[1mje[22m[39m    [0m.LBB0_1[41m5[49m[0m                                        [0m⟪╋⟫[0m[0m    [96m[1mje[22m[39m    [0m.LBB0_1[42m1[49m[0m                                        
[0m[0m[90m# %bb.1:                                # %L1[41m3[49m.[41mp[49mr[41me[49mh[41meader[49m[39m[0m  [0m⟪╋⟫[0m[0m[90m# %bb.1:                                # %L1[42m2[49m.[42ml[49mr[42m.p[49mh[39m[0m      
[0m[0m    [96m[1mmov[22m[39m    [0mr[41m15[0m, [95mqword[39m [95mptr[39m [33m[[39m[0mr[41m13[33m[49m][39m[0m                           [0m⟪╋⟫[0m[0m    [96m[1mmov[22m[39m    [0mr[42m8[0m, [95mqword[39m [95mptr[39m [33m[[39m[0mr[42m8[33m[49m][39m[0m                             
[0m[0m    [96m[1mmov[22m[39m    [0mr[41m11[0m, [95mqword[39m [95mptr[39m [33m[[39m[0mr[41m13 [0m[41m+ [33m8[39m[33m[49m][39m[0m                       [0m⟪╋⟫[0m[0m    [96m[1mmov[22m[39m    [0mr[42m9[0m, [95mqword[39m [95mptr[39m [33m[[39m[0mr[0m[33m[42m9[39m[33m[49m][39m[0m                             
[0m[0m    [96m[1mmov[22m[39m    [0mr1[41m0[0m, [95mqword[39m [95mptr[39m [33m[[39m[0mr[41m9[33m[49m][39m[0m                            [0m⟪╋⟫[0m[0m    [96m[1mmov[22m[39m    [0mr1[42m1[0m, [95mqword[39m [95mptr[39m [33m[[39m[0mr[42mc[33mx[49m][39m[0m                           
[0m[0m    [96m[1mmov[22m[39m    [0mr14[0m, [95mqword[39m [95mptr[39m [33m[[39m[0mr9 [0m+ [33m8[39m[33m][39m[0m                        [0m⟪┫ [0m                                                          
[0m[0m    [96m[1mmov[22m[39m    [95mqword[39m [95mptr[39m [33m[[39m[0mrbp [0m- [33m120[39m[33m][39m[0m, [0mrcx      [90m# 8-byte Spill[39m[0m [0m⟪┫ [0m                                                          
[0m[0m    [96m[1mmov[22m[39m    [0mrbx[0m, [95mqword[39m [95mptr[39m [33m[[39m[0mrcx[33m][39m[0m                           [0m⟪┫ [0m                                                          
[0m[0m    [96m[1mcmp[22m[39m    [0mr[41m1[49m1[0m, [0m[41mr8[49m[0m                                        [0m⟪╋⟫[0m[0m    [96m[1mcmp[22m[39m    [0mr1[42m0[0m, [0m[42m16[49m[0m                                        
[0m[0m    [96m[1mmov[22m[39m    [0mrax[0m, [0mr8[0m                                        [0m⟪┫ [0m                                                          
[0m[0m    [96m[1mcmovb[22m[39m    [0mrax[0m, [0mr11[0m                                     [0m⟪┫ [0m                                                          
[0m[0m    [96m[1mmov[22m[39m    [0mrsi[0m, [0mr14[0m                                       [0m⟪┫ [0m                                                          
[0m[0m    [96m[1msar[22m[39m    [0mrsi[0m, [33m63[39m[0m                                        [0m⟪┫ [0m                                                          
[0m[0m    [96m[1mand[22m[39m    [0mrsi[0m, [0mr14[0m                                       [0m⟪┫ [0m                                                          
[0m[0m    [96m[1mmov[22m[39m    [0mrdi[0m, [0mr14[0m                                       [0m⟪┫ [0m                                                          
[0m[0m    [96m[1msub[22m[39m    [0mrdi[0m, [0mrsi[0m                                       [0m⟪┫ [0m                                                          
[0m[0m    [96m[1mtest[22m[39m    [0mrsi[0m, [0mrsi[0m                                      [0m⟪┫ [0m                                                          
[0m[0m    [96m[1mmov[22m[39m    [0mr12[0m, [33m-1[39m[0m                                        [0m⟪┫ [0m                                                          
[0m[0m    [96m[1mcmovns[22m[39m    [0mr12[0m, [0mrsi[0m                                    [0m⟪┫ [0m                                                          
[0m[0m    [96m[1minc[22m[39m    [0mr12[0m                                            [0m⟪┫ [0m                                                          
[0m[0m    [96m[1mimul[22m[39m    [0mr12[0m, [0mrdi[0m                                      [0m⟪┫ [0m                                                          
[0m[0m    [96m[1mcmp[22m[39m    [0mrax[0m, [0mr12[0m                                       [0m⟪┫ [0m                                                          
[0m[0m    [96m[1mcmovb[22m[39m    [0mr12[0m, [0mrax[0m                                     [0m⟪┫ [0m                                                          
[0m[0m    [96m[1mcmp[22m[39m    [0mr12[0m, [0mr8[0m                                        [0m⟪┫ [0m                                                          
[0m[0m    [96m[1mcmovae[22m[39m    [0mr12[0m, [0mr8[0m                                     [0m⟪┫ [0m                                                          
[0m[0m    [96m[1mmov[22m[39m    [0medi[0m, [33m1[39m[0m                                         [0m⟪┫ [0m                                                          
[0m[0m    [96m[1mtest[22m[39m    [0mr12[0m, [0mr12[0m                                      [0m⟪┫ [0m                                                          
[0m[0m    [96m[1mje[22m[39m    [0m.LBB0_[41m2[49m[0m                                         [0m⟪╋⟫[0m[0m    [96m[1mj[42ma[49me[22m[39m    [0m.LBB0_[42m3[49m[0m                                        
[0m[0m[90m# %bb.3:                                # %idxend21.prehe…[39m[0m⟪┫ [0m                                                          
[0m[0m    [96m[1mcmp[22m[39m    [0mr12[0m, [33m16[39m[0m                                        [0m⟪┫ [0m                                                          
[0m[0m    [96m[1mjae[22m[39m    [0m.LBB0_4[0m                                        [0m⟪┫ [0m                                                          
[0m[0m[91m.LBB0_6:[39m                                [90m# %scalar.ph[39m[0m      [0m⟪┫ [0m                                                          
[0m[0m    [96m[1mdec[22m[39m    [0mrdi[0m                                            [0m⟪┫ [0m                                                          
[0m[0m    [96m[1mmov[22m[39m    [0mrax[0m, [0mrdi[0m                                       [0m⟪┫ [0m                                                          
[0m[0m    [0m.p2align    [33m4[39m[0m, [33m0x90[39m[0m                                   [0m⟪┫ [0m                                                          
[0m[0m[91m.LBB0_7:[39m                                [90m# %idxend21[39m[0m       [0m⟪┫ [0m                                                          
[0m[0m                                        [90m# =>This Inner Lo…[39m[0m⟪┫ [0m                                                          
[0m[0m    [96m[1mmov[22m[39m    [0mrcx[0m, [95mqword[39m [95mptr[39m [33m[[39m[0mr15 [0m+ [33m8[39m[0m*[0mrax[33m][39m[0m                   [0m⟪┫ [0m                                                          
[0m[0m    [96m[1mimul[22m[39m    [0mrcx[0m, [0mrdx[0m                                      [0m⟪┫ [0m                                                          
[0m[0m    [96m[1madd[22m[39m    [0mrcx[0m, [95mqword[39m [95mptr[39m [33m[[39m[0mr10 [0m+ [33m8[39m[0m*[0mrax[33m][39m[0m                   [0m⟪┫ [0m                                                          
[0m[0m    [96m[1mmov[22m[39m    [95mqword[39m [95mptr[39m [33m[[39m[0mrbx [0m+ [33m8[39m[0m*[0mrax[33m][39m[0m, [0mrcx[0m                   [0m⟪┫ [0m                                                          
[0m[0m    [96m[1minc[22m[39m    [0mrax[0m                                            [0m⟪┫ [0m                                                          
[0m[0m    [96m[1mcmp[22m[39m    [0mrax[0m, [0mr12[0m                                       [0m⟪┫ [0m                                                          
[0m[0m    [96m[1mjb[22m[39m    [0m.LBB0_7[0m                                         [0m⟪┫ [0m                                                          
[0m[0m[90m# %bb.8:                                # %main.exit.sele…[39m[0m⟪┫ [0m                                                          
[0m[0m    [96m[1mlea[22m[39m    [0mrdi[0m, [33m[[39m[0mrax [0m+ [33m1[39m[33m][39m[0m                                 [0m⟪┫ [0m                                                          
[0m[0m[91m.LBB0_9:[39m                                [90m# %main.exit.sele…[39m[0m⟪┫ [0m                                                          
[0m[0m    [96m[1mcmp[22m[39m    [0mrax[0m, [0mr8[0m                                        [0m⟪┫ [0m                                                          
[0m[0m    [96m[1mmov[22m[39m    [0mrcx[0m, [95mqword[39m [95mptr[39m [33m[[39m[0mrbp [0m- [33m120[39m[33m][39m      [90m# 8-byte Reloa…[39m[0m⟪┫ [0m                                                          
[0m[0m    [96m[1mjae[22m[39m    [0m.LBB0_15[0m                                       [0m⟪┫ [0m                                                          
[0m                                                          [0m ┣⟫[0m[0m[90m# %bb.2:[39m[0m                                                  
[0m                                                          [0m ┣⟫[0m[0m    [96m[1mxor[22m[39m    [0meax[0m, [0meax[0m                                       
[0m[0m    [96m[1mjmp[22m[39m    [0m.LBB0_10[0m                                       [0m ┃ [0m[0m    [96m[1mjmp[22m[39m    [0m.LBB0_10[0m                                       
[0m[0m[91m.LBB0_2:[39m[0m                                                  [0m⟪┫ [0m                                                          
[0m[0m    [96m[1mmov[22m[39m    [0mrcx[0m, [95mqword[39m [95mptr[39m [33m[[39m[0mrbp [0m- [33m120[39m[33m][39m      [90m# 8-byte Reloa…[39m[0m⟪┫ [0m                                                          
[0m[0m[91m.LBB0_[41m10[49m:[39m                               [90m# %[41mmain.ps[49me[41mud[49mo.[41mex…[49m[39m[0m⟪╋⟫[0m[0m[91m.LBB0_[42m3[49m:[42m [39m[49m                               [90m# %[42mv[49me[42mct[49mo[42mr[49m.[42mph[49m[39m[0m      
[0m[0m    [96m[1mlea[22m[39m    [0mrax[0m, [33m[[39m[0mr8 [0m+ [33m1[39m[33m][39m[0m                                  [0m⟪┫ [0m                                                          
[0m[0m    [0m.p2align    [33m4[39m[0m, [33m0x90[39m[0m                                   [0m⟪┫ [0m                                                          
[0m[0m[91m.LBB0_11:[39m                               [90m# %L13.postloop[39m[0m   [0m⟪┫ [0m                                                          
[0m[0m                                        [90m# =>This Inner Lo…[39m[0m⟪┫ [0m                                                          
[0m[0m    [96m[1mlea[22m[39m    [0mrsi[0m, [33m[[39m[0mrdi [0m- [33m1[39m[33m][39m[0m                                 [0m⟪┫ [0m                                                          
[0m[0m    [96m[1mcmp[22m[39m    [0mrsi[0m, [0mr11[0m                                       [0m⟪┫ [0m                                                          
[0m[0m    [96m[1mjae[22m[39m    [0m.LBB0_25[0m                                       [0m⟪┫ [0m                                                          
[0m[0m[90m# %bb.12:                               # %idxend.postloo…[39m[0m⟪┫ [0m                                                          
[0m[0m                                        [90m#   in Loop: Head…[39m[0m⟪┫ [0m                                                          
[0m[0m    [96m[1mcmp[22m[39m    [0mrsi[0m, [0mr14[0m                                       [0m⟪┫ [0m                                                          
[0m[0m    [96m[1mjae[22m[39m    [0m.LBB0_26[0m                                       [0m⟪┫ [0m                                                          
[0m[0m[90m# %bb.13:                               # %idxend12.postl…[39m[0m⟪┫ [0m                                                          
[0m[0m                                        [90m#   in Loop: Head…[39m[0m⟪┫ [0m                                                          
[0m[0m    [96m[1mcmp[22m[39m    [0mrsi[0m, [0mr8[0m                                        [0m⟪┫ [0m                                                          
[0m[0m    [96m[1mjae[22m[39m    [0m.LBB0_27[0m                                       [0m⟪┫ [0m                                                          
[0m[0m[90m# %bb.14:                               # %idxend21.postl…[39m[0m⟪┫ [0m                                                          
[0m[0m                                        [90m#   in Loop: Head…[39m[0m⟪┫ [0m                                                          
[0m[0m    [96m[1mmov[22m[39m    [0mrsi[0m, [95mqword[39m [95mptr[39m [33m[[39m[0mr15 [0m+ [33m8[39m[0m*[0mrdi [0m- [33m8[39m[33m][39m[0m               [0m⟪┫ [0m                                                          
[0m[0m    [96m[1mimul[22m[39m    [0mrsi[0m, [0mrdx[0m                                      [0m⟪┫ [0m                                                          
[0m[0m    [96m[1madd[22m[39m    [0mrsi[0m, [95mqword[39m [95mptr[39m [33m[[39m[0mr10 [0m+ [33m8[39m[0m*[0mrdi [0m- [33m8[39m[33m][39m[0m               [0m⟪┫ [0m                                                          
[0m[0m    [96m[1mmov[22m[39m    [95mqword[39m [95mptr[39m [33m[[39m[0mrbx [0m+ [33m8[39m[0m*[0mrdi [0m- [33m8[39m[33m][39m[0m, [0mrsi[0m               [0m⟪┫ [0m                                                          
[0m[0m    [96m[1minc[22m[39m    [0mrdi[0m                                            [0m⟪┫ [0m                                                          
[0m[0m    [96m[1mcmp[22m[39m    [0mrax[0m, [0mrdi[0m                                       [0m⟪┫ [0m                                                          
[0m[0m    [96m[1mjne[22m[39m    [0m.LBB0_11[0m                                       [0m⟪┫ [0m                                                          
[0m[0m[91m.LBB0_15:[39m                               [90m# %L31[39m[0m            [0m⟪┫ [0m                                                          
[0m[0m    [96m[1mvmovaps[22m[39m    [0mxmm6[0m, [95mxmmword[39m [95mptr[39m [33m[[39m[0mrbp [0m- [33m96[39m[33m][39m    [90m# 16-byte …[39m[0m⟪┫ [0m                                                          
[0m[0m    [96m[1mvmovaps[22m[39m    [0mxmm7[0m, [95mxmmword[39m [95mptr[39m [33m[[39m[0mrbp [0m- [33m80[39m[33m][39m    [90m# 16-byte …[39m[0m⟪┫ [0m                                                          
[0m[0m    [96m[1mlea[22m[39m    [0mrsp[0m, [33m[[39m[0mrbp [0m- [33m56[39m[33m][39m[0m                                [0m⟪┫ [0m                                                          
[0m[0m    [96m[1mpop[22m[39m    [0mrbx[0m                                            [0m⟪┫ [0m                                                          
[0m[0m    [96m[1mpop[22m[39m    [0mrdi[0m                                            [0m⟪┫ [0m                                                          
[0m[0m    [96m[1mpop[22m[39m    [0mrsi[0m                                            [0m⟪┫ [0m                                                          
[0m[0m    [96m[1mpop[22m[39m    [0mr12[0m                                            [0m⟪┫ [0m                                                          
[0m[0m    [96m[1mpop[22m[39m    [0mr13[0m                                            [0m⟪┫ [0m                                                          
[0m[0m    [96m[1mpop[22m[39m    [0mr14[0m                                            [0m⟪┫ [0m                                                          
[0m[0m    [96m[1mpop[22m[39m    [0mr15[0m                                            [0m⟪┫ [0m                                                          
[0m[0m    [96m[1mpop[22m[39m    [0mrbp[0m                                            [0m⟪┫ [0m                                                          
[0m[0m    [96m[1mvzeroupper[22m[39m[0m                                            [0m⟪┫ [0m                                                          
[0m[0m    [96m[1mret[22m[39m[0m                                                   [0m⟪┫ [0m                                                          
[0m[0m[91m.LBB0_4:[39m                                [90m# %vector.memchec…[39m[0m⟪┫ [0m                                                          
[0m[0m    [96m[1mmov[22m[39m    [95mqword[39m [95mptr[39m [33m[[39m[0mrbp [0m- [33m104[39m[33m][39m[0m, [0mr13      [90m# 8-byte Spill[39m[0m [0m⟪┫ [0m                                                          
[0m[0m    [96m[1mmov[22m[39m    [95mqword[39m [95mptr[39m [33m[[39m[0mrbp [0m- [33m112[39m[33m][39m[0m, [0mr9       [90m# 8-byte Spill[39m[0m [0m⟪┫ [0m                                                          
[0m[0m    [96m[1mlea[22m[39m    [0mrsi[0m, [33m[[39m[0mrbx [0m+ [33m8[39m[0m*[0mr12[33m][39m[0m                             [0m⟪┫ [0m                                                          
[0m[0m    [96m[1mlea[22m[39m    [0mrax[0m, [33m[[39m[0mr15 [0m+ [33m8[39m[0m*[0mr12[33m][39m[0m                             [0m⟪┫ [0m                                                          
[0m[0m    [96m[1mlea[22m[39m    [0mr13[0m, [33m[[39m[0mr10 [0m+ [33m8[39m[0m*[0mr12[33m][39m[0m                             [0m⟪┫ [0m                                                          
[0m[0m    [96m[1mcmp[22m[39m    [0mrbx[0m, [0mrax[0m                                       [0m⟪┫ [0m                                                          
[0m[0m    [96m[1msetb[22m[39m    [0mr9b[0m                                           [0m⟪┫ [0m                                                          
[0m[0m    [96m[1mcmp[22m[39m    [0mr15[0m, [0mrsi[0m                                       [0m⟪┫ [0m                                                          
[0m[0m    [96m[1msetb[22m[39m    [0mcl[0m                                            [0m⟪┫ [0m                                                          
[0m[0m    [96m[1mcmp[22m[39m    [0mrbx[0m, [0mr13[0m                                       [0m⟪┫ [0m                                                          
[0m[0m    [96m[1msetb[22m[39m    [0mal[0m                                            [0m⟪┫ [0m                                                          
[0m[0m    [96m[1mcmp[22m[39m    [0mr10[0m, [0mrsi[0m                                       [0m⟪┫ [0m                                                          
[0m[0m    [96m[1msetb[22m[39m    [0msil[0m                                           [0m⟪┫ [0m                                                          
[0m[0m    [96m[1mtest[22m[39m    [0mr9b[0m, [0mcl[0m                                       [0m⟪┫ [0m                                                          
[0m[0m    [96m[1mjne[22m[39m    [0m.LBB0_5[0m                                        [0m⟪┫ [0m                                                          
[0m[0m[90m# %bb.16:                               # %vector.memchec…[39m[0m⟪┫ [0m                                                          
[0m[0m    [96m[1mand[22m[39m    [0mal[0m, [0msil[0m                                        [0m⟪┫ [0m                                                          
[0m[0m    [96m[1mmov[22m[39m    [0mr9[0m, [95mqword[39m [95mptr[39m [33m[[39m[0mrbp [0m- [33m112[39m[33m][39m       [90m# 8-byte Reloa…[39m[0m⟪┫ [0m                                                          
[0m[0m    [96m[1mmov[22m[39m    [0mr13[0m, [95mqword[39m [95mptr[39m [33m[[39m[0mrbp [0m- [33m104[39m[33m][39m      [90m# 8-byte Reloa…[39m[0m⟪┫ [0m                                                          
[0m[0m    [96m[1mjne[22m[39m    [0m.LBB0_6[0m                                        [0m⟪┫ [0m                                                          
[0m[0m[90m# %bb.17:                               # %vector.ph[39m[0m      [0m⟪┫ [0m                                                          
[0m[0m    [96m[1mmovabs[22m[39m    [0mrsi[0m, [33m9223372036854775792[39m[0m                    [0m⟪┫ [0m                                                          
[0m[0m    [96m[1mand[22m[39m    [0mrsi[0m, [0mr12[0m                                       [0m⟪┫ [0m                                                          
[0m                                                          [0m ┣⟫[0m[0m    [96m[1mmov[22m[39m    [0mrax[0m, [0mr10[0m                                       
[0m                                                          [0m ┣⟫[0m[0m    [96m[1mand[22m[39m    [0mrax[0m, [33m-16[39m[0m                                       
[0m[0m    [96m[1mvmovq[22m[39m    [0mxmm0[0m, [0mrdx[0m                                    [0m ┃ [0m[0m    [96m[1mvmovq[22m[39m    [0mxmm0[0m, [0mrdx[0m                                    
[0m[0m    [96m[1mvpbroadcastq[22m[39m    [0mymm0[0m, [0mxmm0[0m                            [0m ┃ [0m[0m    [96m[1mvpbroadcastq[22m[39m    [0mymm0[0m, [0mxmm0[0m                            
[0m[0m    [96m[1mlea[22m[39m    [0mrcx[0m, [33m[[39m[0mr[41msi[49m [0m- [33m16[39m[33m][39m[0m                                [0m⟪╋⟫[0m[0m    [96m[1mlea[22m[39m    [0mrcx[0m, [33m[[39m[0mr[42max[49m [0m- [33m16[39m[33m][39m[0m                                
[0m[0m    [96m[1mmov[22m[39m    [0mr[41max[0m, [0mrcx[0m                                       [0m⟪╋⟫[0m[0m    [96m[1mmov[22m[39m    [0mr[42msi[0m, [0mrcx[0m                                       
[0m[0m    [96m[1mshr[22m[39m    [0mr[41max[0m, [33m4[39m[0m                                         [0m⟪╋⟫[0m[0m    [96m[1mshr[22m[39m    [0mr[42msi[0m, [33m4[39m[0m                                         
[0m[0m    [96m[1minc[22m[39m    [0mr[41max[49m[0m                                            [0m⟪╋⟫[0m[0m    [96m[1minc[22m[39m    [0mr[42msi[49m[0m                                            
[0m[0m    [96m[1mvpsrlq[22m[39m    [0mymm1[0m, [0mymm0[0m, [33m32[39m[0m                              [0m ┃ [0m[0m    [96m[1mvpsrlq[22m[39m    [0mymm1[0m, [0mymm0[0m, [33m32[39m[0m                              
[0m[0m    [96m[1mtest[22m[39m    [0mrcx[0m, [0mrcx[0m                                      [0m ┃ [0m[0m    [96m[1mtest[22m[39m    [0mrcx[0m, [0mrcx[0m                                      
[0m[0m    [96m[1mje[22m[39m    [0m.LBB0_[41m18[49m[0m                                        [0m⟪╋⟫[0m[0m    [96m[1mje[22m[39m    [0m.LBB0_[42m4[49m[0m                                         
[0m[0m[90m# %bb.[41m19[49m:                               # %vector.ph.new[39m[0m  [0m⟪╋⟫[0m[0m[90m# %bb.[42m5[49m:[42m [49m                               # %vector.ph.new[39m[0m  
[0m[0m    [96m[1mmov[22m[39m    [0mr13[0m, [0mrax[0m                                       [0m⟪┫ [0m                                                          
[0m[0m    [96m[1mand[22m[39m    [0mr[41m13[0m, [33m-2[39m[0m                                        [0m⟪╋⟫[0m[0m    [96m[1mand[22m[39m    [0mr[42mdi[0m, [33m-2[39m[0m                                        
[0m[0m    [96m[1mxor[22m[39m    [0medi[0m, [0medi[0m                                       [0m⟪┫ [0m                                                          
[0m                                                          [0m ┣⟫[0m[0m    [96m[1mmov[22m[39m    [0mrdi[0m, [0mrsi[0m                                       
[0m                                                          [0m ┣⟫[0m[0m    [96m[1mxor[22m[39m    [0mecx[0m, [0mecx[0m                                       
[0m[0m    [0m.p2align    [33m4[39m[0m, [33m0x90[39m[0m                                   [0m ┃ [0m[0m    [0m.p2align    [33m4[39m[0m, [33m0x90[39m[0m                                   
[0m[0m[91m.LBB0_[41m20[49m:[39m                               [90m# %vector.body[39m[0m    [0m⟪╋⟫[0m[0m[91m.LBB0_[42m6[49m:[42m [39m[49m                               [90m# %vector.body[39m[0m    
[0m[0m                                        [90m# =>This Inner Lo…[39m[0m ┃ [0m[0m                                        [90m# =>This Inner Lo…[39m
[0m[0m    [96m[1mvmovdqu[22m[39m    [0mymm2[0m, [95mymmword[39m [95mptr[39m [33m[[39m[0mr[41m15[49m [0m+ [33m8[39m[0m*[0mr[41mdi[33m[49m][39m[0m            [0m⟪╋⟫[0m[0m    [96m[1mvmovdqu[22m[39m    [0mymm2[0m, [95mymmword[39m [95mptr[39m [33m[[39m[0mr[42m8[49m [0m+ [33m8[39m[0m*[0mr[42mcx[33m[49m][39m[0m             
[0m[0m    [96m[1mvmovdqu[22m[39m    [0mymm3[0m, [95mymmword[39m [95mptr[39m [33m[[39m[0mr[41m15[49m [0m+ [33m8[39m[0m*[0mr[41mdi[49m [0m+ [33m32[39m[33m][39m[0m       [0m⟪╋⟫[0m[0m    [96m[1mvmovdqu[22m[39m    [0mymm3[0m, [95mymmword[39m [95mptr[39m [33m[[39m[0mr[42m8[49m [0m+ [33m8[39m[0m*[0mr[42mcx[49m [0m+ [33m32[39m[33m][39m[0m        
[0m[0m    [96m[1mvmovdqu[22m[39m    [0mymm4[0m, [95mymmword[39m [95mptr[39m [33m[[39m[0mr[41m15[49m [0m+ [33m8[39m[0m*[0mr[41mdi[49m [0m+ [33m64[39m[33m][39m[0m       [0m⟪╋⟫[0m[0m    [96m[1mvmovdqu[22m[39m    [0mymm4[0m, [95mymmword[39m [95mptr[39m [33m[[39m[0mr[42m8[49m [0m+ [33m8[39m[0m*[0mr[42mcx[49m [0m+ [33m64[39m[33m][39m[0m        
[0m[0m    [96m[1mvmovdqu[22m[39m    [0mymm5[0m, [95mymmword[39m [95mptr[39m [33m[[39m[0mr[41m15[49m [0m+ [33m8[39m[0m*[0mr[41mdi[49m [0m+ [33m96[39m[33m][39m[0m       [0m⟪╋⟫[0m[0m    [96m[1mvmovdqu[22m[39m    [0mymm5[0m, [95mymmword[39m [95mptr[39m [33m[[39m[0mr[42m8[49m [0m+ [33m8[39m[0m*[0mr[42mcx[49m [0m+ [33m96[39m[33m][39m[0m        
[0m[0m    [96m[1mvpmuludq[22m[39m    [0mymm6[0m, [0mymm2[0m, [0mymm1[0m                          [0m ┃ [0m[0m    [96m[1mvpmuludq[22m[39m    [0mymm6[0m, [0mymm2[0m, [0mymm1[0m                          
[0m[0m    [96m[1mvpsrlq[22m[39m    [0mymm7[0m, [0mymm2[0m, [33m32[39m[0m                              [0m ┃ [0m[0m    [96m[1mvpsrlq[22m[39m    [0mymm7[0m, [0mymm2[0m, [33m32[39m[0m                              
[0m[0m    [96m[1mvpmuludq[22m[39m    [0mymm7[0m, [0mymm7[0m, [0mymm0[0m                          [0m ┃ [0m[0m    [96m[1mvpmuludq[22m[39m    [0mymm7[0m, [0mymm7[0m, [0mymm0[0m                          
[0m[0m    [96m[1mvpaddq[22m[39m    [0mymm6[0m, [0mymm6[0m, [0mymm7[0m                            [0m ┃ [0m[0m    [96m[1mvpaddq[22m[39m    [0mymm6[0m, [0mymm6[0m, [0mymm7[0m                            
[0m[0m    [96m[1mvpsllq[22m[39m    [0mymm6[0m, [0mymm6[0m, [33m32[39m[0m                              [0m ┃ [0m[0m    [96m[1mvpsllq[22m[39m    [0mymm6[0m, [0mymm6[0m, [33m32[39m[0m                              
[0m[0m    [96m[1mvpmuludq[22m[39m    [0mymm2[0m, [0mymm2[0m, [0mymm0[0m                          [0m ┃ [0m[0m    [96m[1mvpmuludq[22m[39m    [0mymm2[0m, [0mymm2[0m, [0mymm0[0m                          
[0m[0m    [96m[1mvpaddq[22m[39m    [0mymm2[0m, [0mymm2[0m, [0mymm6[0m                            [0m ┃ [0m[0m    [96m[1mvpaddq[22m[39m    [0mymm2[0m, [0mymm2[0m, [0mymm6[0m                            
[0m[0m    [96m[1mvpmuludq[22m[39m    [0mymm6[0m, [0mymm3[0m, [0mymm1[0m                          [0m ┃ [0m[0m    [96m[1mvpmuludq[22m[39m    [0mymm6[0m, [0mymm3[0m, [0mymm1[0m                          
[0m[0m    [96m[1mvpsrlq[22m[39m    [0mymm7[0m, [0mymm3[0m, [33m32[39m[0m                              [0m ┃ [0m[0m    [96m[1mvpsrlq[22m[39m    [0mymm7[0m, [0mymm3[0m, [33m32[39m[0m                              
[0m[0m    [96m[1mvpmuludq[22m[39m    [0mymm7[0m, [0mymm7[0m, [0mymm0[0m                          [0m ┃ [0m[0m    [96m[1mvpmuludq[22m[39m    [0mymm7[0m, [0mymm7[0m, [0mymm0[0m                          
[0m[0m    [96m[1mvpaddq[22m[39m    [0mymm6[0m, [0mymm6[0m, [0mymm7[0m                            [0m ┃ [0m[0m    [96m[1mvpaddq[22m[39m    [0mymm6[0m, [0mymm6[0m, [0mymm7[0m                            
[0m[0m    [96m[1mvpsllq[22m[39m    [0mymm6[0m, [0mymm6[0m, [33m32[39m[0m                              [0m ┃ [0m[0m    [96m[1mvpsllq[22m[39m    [0mymm6[0m, [0mymm6[0m, [33m32[39m[0m                              
[0m[0m    [96m[1mvpmuludq[22m[39m    [0mymm3[0m, [0mymm3[0m, [0mymm0[0m                          [0m ┃ [0m[0m    [96m[1mvpmuludq[22m[39m    [0mymm3[0m, [0mymm3[0m, [0mymm0[0m                          
[0m[0m    [96m[1mvpaddq[22m[39m    [0mymm3[0m, [0mymm3[0m, [0mymm6[0m                            [0m ┃ [0m[0m    [96m[1mvpaddq[22m[39m    [0mymm3[0m, [0mymm3[0m, [0mymm6[0m                            
[0m[0m    [96m[1mvpmuludq[22m[39m    [0mymm6[0m, [0mymm4[0m, [0mymm1[0m                          [0m ┃ [0m[0m    [96m[1mvpmuludq[22m[39m    [0mymm6[0m, [0mymm4[0m, [0mymm1[0m                          
[0m[0m    [96m[1mvpsrlq[22m[39m    [0mymm7[0m, [0mymm4[0m, [33m32[39m[0m                              [0m ┃ [0m[0m    [96m[1mvpsrlq[22m[39m    [0mymm7[0m, [0mymm4[0m, [33m32[39m[0m                              
[0m[0m    [96m[1mvpmuludq[22m[39m    [0mymm7[0m, [0mymm7[0m, [0mymm0[0m                          [0m ┃ [0m[0m    [96m[1mvpmuludq[22m[39m    [0mymm7[0m, [0mymm7[0m, [0mymm0[0m                          
[0m[0m    [96m[1mvpaddq[22m[39m    [0mymm6[0m, [0mymm6[0m, [0mymm7[0m                            [0m ┃ [0m[0m    [96m[1mvpaddq[22m[39m    [0mymm6[0m, [0mymm6[0m, [0mymm7[0m                            
[0m[0m    [96m[1mvpsllq[22m[39m    [0mymm6[0m, [0mymm6[0m, [33m32[39m[0m                              [0m ┃ [0m[0m    [96m[1mvpsllq[22m[39m    [0mymm6[0m, [0mymm6[0m, [33m32[39m[0m                              
[0m[0m    [96m[1mvpmuludq[22m[39m    [0mymm4[0m, [0mymm4[0m, [0mymm0[0m                          [0m ┃ [0m[0m    [96m[1mvpmuludq[22m[39m    [0mymm4[0m, [0mymm4[0m, [0mymm0[0m                          
[0m[0m    [96m[1mvpaddq[22m[39m    [0mymm4[0m, [0mymm4[0m, [0mymm6[0m                            [0m ┃ [0m[0m    [96m[1mvpaddq[22m[39m    [0mymm4[0m, [0mymm4[0m, [0mymm6[0m                            
[0m[0m    [96m[1mvpmuludq[22m[39m    [0mymm6[0m, [0mymm5[0m, [0mymm1[0m                          [0m ┃ [0m[0m    [96m[1mvpmuludq[22m[39m    [0mymm6[0m, [0mymm5[0m, [0mymm1[0m                          
[0m[0m    [96m[1mvpsrlq[22m[39m    [0mymm7[0m, [0mymm5[0m, [33m32[39m[0m                              [0m ┃ [0m[0m    [96m[1mvpsrlq[22m[39m    [0mymm7[0m, [0mymm5[0m, [33m32[39m[0m                              
[0m[0m    [96m[1mvpmuludq[22m[39m    [0mymm7[0m, [0mymm7[0m, [0mymm0[0m                          [0m ┃ [0m[0m    [96m[1mvpmuludq[22m[39m    [0mymm7[0m, [0mymm7[0m, [0mymm0[0m                          
[0m[0m    [96m[1mvpaddq[22m[39m    [0mymm6[0m, [0mymm6[0m, [0mymm7[0m                            [0m ┃ [0m[0m    [96m[1mvpaddq[22m[39m    [0mymm6[0m, [0mymm6[0m, [0mymm7[0m                            
[0m[0m    [96m[1mvpsllq[22m[39m    [0mymm6[0m, [0mymm6[0m, [33m32[39m[0m                              [0m ┃ [0m[0m    [96m[1mvpsllq[22m[39m    [0mymm6[0m, [0mymm6[0m, [33m32[39m[0m                              
[0m[0m    [96m[1mvpmuludq[22m[39m    [0mymm5[0m, [0mymm5[0m, [0mymm0[0m                          [0m ┃ [0m[0m    [96m[1mvpmuludq[22m[39m    [0mymm5[0m, [0mymm5[0m, [0mymm0[0m                          
[0m[0m    [96m[1mvpaddq[22m[39m    [0mymm5[0m, [0mymm5[0m, [0mymm6[0m                            [0m ┃ [0m[0m    [96m[1mvpaddq[22m[39m    [0mymm5[0m, [0mymm5[0m, [0mymm6[0m                            
[0m[0m    [96m[1mvpaddq[22m[39m    [0mymm2[0m, [0mymm2[0m, [95mymmword[39m [95mptr[39m [33m[[39m[0mr[41m10[49m [0m+ [33m8[39m[0m*[0mr[41mdi[33m[49m][39m[0m       [0m⟪╋⟫[0m[0m    [96m[1mvpaddq[22m[39m    [0mymm2[0m, [0mymm2[0m, [95mymmword[39m [95mptr[39m [33m[[39m[0mr[42m9[49m [0m+ [33m8[39m[0m*[0mr[42mcx[33m[49m][39m[0m        
[0m[0m    [96m[1mvpaddq[22m[39m    [0mymm3[0m, [0mymm3[0m, [95mymmword[39m [95mptr[39m [33m[[39m[0mr[41m10[49m [0m+ [33m8[39m[0m*[0mr[41mdi[49m [0m+ [33m32[39m[33m][39m[0m  [0m⟪╋⟫[0m[0m    [96m[1mvpaddq[22m[39m    [0mymm3[0m, [0mymm3[0m, [95mymmword[39m [95mptr[39m [33m[[39m[0mr[42m9[49m [0m+ [33m8[39m[0m*[0mr[42mcx[49m [0m+ [33m32[39m[33m][39m[0m   
[0m[0m    [96m[1mvpaddq[22m[39m    [0mymm4[0m, [0mymm4[0m, [95mymmword[39m [95mptr[39m [33m[[39m[0mr[41m10[49m [0m+ [33m8[39m[0m*[0mr[41mdi[49m [0m+ [33m64[39m[33m][39m[0m  [0m⟪╋⟫[0m[0m    [96m[1mvpaddq[22m[39m    [0mymm4[0m, [0mymm4[0m, [95mymmword[39m [95mptr[39m [33m[[39m[0mr[42m9[49m [0m+ [33m8[39m[0m*[0mr[42mcx[49m [0m+ [33m64[39m[33m][39m[0m   
[0m[0m    [96m[1mvpaddq[22m[39m    [0mymm5[0m, [0mymm5[0m, [95mymmword[39m [95mptr[39m [33m[[39m[0mr[41m10[49m [0m+ [33m8[39m[0m*[0mr[41mdi[49m [0m+ [33m96[39m[33m][39m[0m  [0m⟪╋⟫[0m[0m    [96m[1mvpaddq[22m[39m    [0mymm5[0m, [0mymm5[0m, [95mymmword[39m [95mptr[39m [33m[[39m[0mr[42m9[49m [0m+ [33m8[39m[0m*[0mr[42mcx[49m [0m+ [33m96[39m[33m][39m[0m   
[0m[0m    [96m[1mvmovdqu[22m[39m    [95mymmword[39m [95mptr[39m [33m[[39m[0mr[41mbx[49m [0m+ [33m8[39m[0m*[0mr[41mdi[33m[49m][39m[0m, [0mymm2[0m            [0m⟪╋⟫[0m[0m    [96m[1mvmovdqu[22m[39m    [95mymmword[39m [95mptr[39m [33m[[39m[0mr[42m11[49m [0m+ [33m8[39m[0m*[0mr[42mcx[33m[49m][39m[0m, [0mymm2[0m            
[0m[0m    [96m[1mvmovdqu[22m[39m    [95mymmword[39m [95mptr[39m [33m[[39m[0mr[41mbx[49m [0m+ [33m8[39m[0m*[0mr[41mdi[49m [0m+ [33m32[39m[33m][39m[0m, [0mymm3[0m       [0m⟪╋⟫[0m[0m    [96m[1mvmovdqu[22m[39m    [95mymmword[39m [95mptr[39m [33m[[39m[0mr[42m11[49m [0m+ [33m8[39m[0m*[0mr[42mcx[49m [0m+ [33m32[39m[33m][39m[0m, [0mymm3[0m       
[0m[0m    [96m[1mvmovdqu[22m[39m    [95mymmword[39m [95mptr[39m [33m[[39m[0mr[41mbx[49m [0m+ [33m8[39m[0m*[0mr[41mdi[49m [0m+ [33m64[39m[33m][39m[0m, [0mymm4[0m       [0m⟪╋⟫[0m[0m    [96m[1mvmovdqu[22m[39m    [95mymmword[39m [95mptr[39m [33m[[39m[0mr[42m11[49m [0m+ [33m8[39m[0m*[0mr[42mcx[49m [0m+ [33m64[39m[33m][39m[0m, [0mymm4[0m       
[0m[0m    [96m[1mvmovdqu[22m[39m    [95mymmword[39m [95mptr[39m [33m[[39m[0mr[41mbx[49m [0m+ [33m8[39m[0m*[0mr[41mdi[49m [0m+ [33m96[39m[33m][39m[0m, [0mymm5[0m       [0m⟪╋⟫[0m[0m    [96m[1mvmovdqu[22m[39m    [95mymmword[39m [95mptr[39m [33m[[39m[0mr[42m11[49m [0m+ [33m8[39m[0m*[0mr[42mcx[49m [0m+ [33m96[39m[33m][39m[0m, [0mymm5[0m       
[0m[0m    [96m[1mvmovdqu[22m[39m    [0mymm2[0m, [95mymmword[39m [95mptr[39m [33m[[39m[0mr[41m15[49m [0m+ [33m8[39m[0m*[0mr[41mdi[49m [0m+ [33m128[39m[33m][39m[0m      [0m⟪╋⟫[0m[0m    [96m[1mvmovdqu[22m[39m    [0mymm2[0m, [95mymmword[39m [95mptr[39m [33m[[39m[0mr[42m8[49m [0m+ [33m8[39m[0m*[0mr[42mcx[49m [0m+ [33m128[39m[33m][39m[0m       
[0m[0m    [96m[1mvmovdqu[22m[39m    [0mymm3[0m, [95mymmword[39m [95mptr[39m [33m[[39m[0mr[41m15[49m [0m+ [33m8[39m[0m*[0mr[41mdi[49m [0m+ [33m160[39m[33m][39m[0m      [0m⟪╋⟫[0m[0m    [96m[1mvmovdqu[22m[39m    [0mymm3[0m, [95mymmword[39m [95mptr[39m [33m[[39m[0mr[42m8[49m [0m+ [33m8[39m[0m*[0mr[42mcx[49m [0m+ [33m160[39m[33m][39m[0m       
[0m[0m    [96m[1mvmovdqu[22m[39m    [0mymm4[0m, [95mymmword[39m [95mptr[39m [33m[[39m[0mr[41m15[49m [0m+ [33m8[39m[0m*[0mr[41mdi[49m [0m+ [33m192[39m[33m][39m[0m      [0m⟪╋⟫[0m[0m    [96m[1mvmovdqu[22m[39m    [0mymm4[0m, [95mymmword[39m [95mptr[39m [33m[[39m[0mr[42m8[49m [0m+ [33m8[39m[0m*[0mr[42mcx[49m [0m+ [33m192[39m[33m][39m[0m       
[0m[0m    [96m[1mvmovdqu[22m[39m    [0mymm5[0m, [95mymmword[39m [95mptr[39m [33m[[39m[0mr[41m15[49m [0m+ [33m8[39m[0m*[0mr[41mdi[49m [0m+ [33m224[39m[33m][39m[0m      [0m⟪╋⟫[0m[0m    [96m[1mvmovdqu[22m[39m    [0mymm5[0m, [95mymmword[39m [95mptr[39m [33m[[39m[0mr[42m8[49m [0m+ [33m8[39m[0m*[0mr[42mcx[49m [0m+ [33m224[39m[33m][39m[0m       
[0m[0m    [96m[1mvpmuludq[22m[39m    [0mymm6[0m, [0mymm2[0m, [0mymm1[0m                          [0m ┃ [0m[0m    [96m[1mvpmuludq[22m[39m    [0mymm6[0m, [0mymm2[0m, [0mymm1[0m                          
[0m[0m    [96m[1mvpsrlq[22m[39m    [0mymm7[0m, [0mymm2[0m, [33m32[39m[0m                              [0m ┃ [0m[0m    [96m[1mvpsrlq[22m[39m    [0mymm7[0m, [0mymm2[0m, [33m32[39m[0m                              
[0m[0m    [96m[1mvpmuludq[22m[39m    [0mymm7[0m, [0mymm7[0m, [0mymm0[0m                          [0m ┃ [0m[0m    [96m[1mvpmuludq[22m[39m    [0mymm7[0m, [0mymm7[0m, [0mymm0[0m                          
[0m[0m    [96m[1mvpaddq[22m[39m    [0mymm6[0m, [0mymm6[0m, [0mymm7[0m                            [0m ┃ [0m[0m    [96m[1mvpaddq[22m[39m    [0mymm6[0m, [0mymm6[0m, [0mymm7[0m                            
[0m[0m    [96m[1mvpsllq[22m[39m    [0mymm6[0m, [0mymm6[0m, [33m32[39m[0m                              [0m ┃ [0m[0m    [96m[1mvpsllq[22m[39m    [0mymm6[0m, [0mymm6[0m, [33m32[39m[0m                              
[0m[0m    [96m[1mvpmuludq[22m[39m    [0mymm2[0m, [0mymm2[0m, [0mymm0[0m                          [0m ┃ [0m[0m    [96m[1mvpmuludq[22m[39m    [0mymm2[0m, [0mymm2[0m, [0mymm0[0m                          
[0m[0m    [96m[1mvpaddq[22m[39m    [0mymm2[0m, [0mymm2[0m, [0mymm6[0m                            [0m ┃ [0m[0m    [96m[1mvpaddq[22m[39m    [0mymm2[0m, [0mymm2[0m, [0mymm6[0m                            
[0m[0m    [96m[1mvpmuludq[22m[39m    [0mymm6[0m, [0mymm3[0m, [0mymm1[0m                          [0m ┃ [0m[0m    [96m[1mvpmuludq[22m[39m    [0mymm6[0m, [0mymm3[0m, [0mymm1[0m                          
[0m[0m    [96m[1mvpsrlq[22m[39m    [0mymm7[0m, [0mymm3[0m, [33m32[39m[0m                              [0m ┃ [0m[0m    [96m[1mvpsrlq[22m[39m    [0mymm7[0m, [0mymm3[0m, [33m32[39m[0m                              
[0m[0m    [96m[1mvpmuludq[22m[39m    [0mymm7[0m, [0mymm7[0m, [0mymm0[0m                          [0m ┃ [0m[0m    [96m[1mvpmuludq[22m[39m    [0mymm7[0m, [0mymm7[0m, [0mymm0[0m                          
[0m[0m    [96m[1mvpaddq[22m[39m    [0mymm6[0m, [0mymm6[0m, [0mymm7[0m                            [0m ┃ [0m[0m    [96m[1mvpaddq[22m[39m    [0mymm6[0m, [0mymm6[0m, [0mymm7[0m                            
[0m[0m    [96m[1mvpsllq[22m[39m    [0mymm6[0m, [0mymm6[0m, [33m32[39m[0m                              [0m ┃ [0m[0m    [96m[1mvpsllq[22m[39m    [0mymm6[0m, [0mymm6[0m, [33m32[39m[0m                              
[0m[0m    [96m[1mvpmuludq[22m[39m    [0mymm3[0m, [0mymm3[0m, [0mymm0[0m                          [0m ┃ [0m[0m    [96m[1mvpmuludq[22m[39m    [0mymm3[0m, [0mymm3[0m, [0mymm0[0m                          
[0m[0m    [96m[1mvpaddq[22m[39m    [0mymm3[0m, [0mymm3[0m, [0mymm6[0m                            [0m ┃ [0m[0m    [96m[1mvpaddq[22m[39m    [0mymm3[0m, [0mymm3[0m, [0mymm6[0m                            
[0m[0m    [96m[1mvpmuludq[22m[39m    [0mymm6[0m, [0mymm4[0m, [0mymm1[0m                          [0m ┃ [0m[0m    [96m[1mvpmuludq[22m[39m    [0mymm6[0m, [0mymm4[0m, [0mymm1[0m                          
[0m[0m    [96m[1mvpsrlq[22m[39m    [0mymm7[0m, [0mymm4[0m, [33m32[39m[0m                              [0m ┃ [0m[0m    [96m[1mvpsrlq[22m[39m    [0mymm7[0m, [0mymm4[0m, [33m32[39m[0m                              
[0m[0m    [96m[1mvpmuludq[22m[39m    [0mymm7[0m, [0mymm7[0m, [0mymm0[0m                          [0m ┃ [0m[0m    [96m[1mvpmuludq[22m[39m    [0mymm7[0m, [0mymm7[0m, [0mymm0[0m                          
[0m[0m    [96m[1mvpaddq[22m[39m    [0mymm6[0m, [0mymm6[0m, [0mymm7[0m                            [0m ┃ [0m[0m    [96m[1mvpaddq[22m[39m    [0mymm6[0m, [0mymm6[0m, [0mymm7[0m                            
[0m[0m    [96m[1mvpsllq[22m[39m    [0mymm6[0m, [0mymm6[0m, [33m32[39m[0m                              [0m ┃ [0m[0m    [96m[1mvpsllq[22m[39m    [0mymm6[0m, [0mymm6[0m, [33m32[39m[0m                              
[0m[0m    [96m[1mvpmuludq[22m[39m    [0mymm4[0m, [0mymm4[0m, [0mymm0[0m                          [0m ┃ [0m[0m    [96m[1mvpmuludq[22m[39m    [0mymm4[0m, [0mymm4[0m, [0mymm0[0m                          
[0m[0m    [96m[1mvpaddq[22m[39m    [0mymm4[0m, [0mymm4[0m, [0mymm6[0m                            [0m ┃ [0m[0m    [96m[1mvpaddq[22m[39m    [0mymm4[0m, [0mymm4[0m, [0mymm6[0m                            
[0m[0m    [96m[1mvpmuludq[22m[39m    [0mymm6[0m, [0mymm5[0m, [0mymm1[0m                          [0m ┃ [0m[0m    [96m[1mvpmuludq[22m[39m    [0mymm6[0m, [0mymm5[0m, [0mymm1[0m                          
[0m[0m    [96m[1mvpsrlq[22m[39m    [0mymm7[0m, [0mymm5[0m, [33m32[39m[0m                              [0m ┃ [0m[0m    [96m[1mvpsrlq[22m[39m    [0mymm7[0m, [0mymm5[0m, [33m32[39m[0m                              
[0m[0m    [96m[1mvpmuludq[22m[39m    [0mymm7[0m, [0mymm7[0m, [0mymm0[0m                          [0m ┃ [0m[0m    [96m[1mvpmuludq[22m[39m    [0mymm7[0m, [0mymm7[0m, [0mymm0[0m                          
[0m[0m    [96m[1mvpaddq[22m[39m    [0mymm6[0m, [0mymm6[0m, [0mymm7[0m                            [0m ┃ [0m[0m    [96m[1mvpaddq[22m[39m    [0mymm6[0m, [0mymm6[0m, [0mymm7[0m                            
[0m[0m    [96m[1mvpsllq[22m[39m    [0mymm6[0m, [0mymm6[0m, [33m32[39m[0m                              [0m ┃ [0m[0m    [96m[1mvpsllq[22m[39m    [0mymm6[0m, [0mymm6[0m, [33m32[39m[0m                              
[0m[0m    [96m[1mvpmuludq[22m[39m    [0mymm5[0m, [0mymm5[0m, [0mymm0[0m                          [0m ┃ [0m[0m    [96m[1mvpmuludq[22m[39m    [0mymm5[0m, [0mymm5[0m, [0mymm0[0m                          
[0m[0m    [96m[1mvpaddq[22m[39m    [0mymm5[0m, [0mymm5[0m, [0mymm6[0m                            [0m ┃ [0m[0m    [96m[1mvpaddq[22m[39m    [0mymm5[0m, [0mymm5[0m, [0mymm6[0m                            
[0m[0m    [96m[1mvpaddq[22m[39m    [0mymm2[0m, [0mymm2[0m, [95mymmword[39m [95mptr[39m [33m[[39m[0mr[41m10[49m [0m+ [33m8[39m[0m*[0mr[41mdi[49m [0m+ [33m128[39m[33m][39m[0m [0m⟪╋⟫[0m[0m    [96m[1mvpaddq[22m[39m    [0mymm2[0m, [0mymm2[0m, [95mymmword[39m [95mptr[39m [33m[[39m[0mr[42m9[49m [0m+ [33m8[39m[0m*[0mr[42mcx[49m [0m+ [33m128[39m[33m][39m[0m  
[0m[0m    [96m[1mvpaddq[22m[39m    [0mymm3[0m, [0mymm3[0m, [95mymmword[39m [95mptr[39m [33m[[39m[0mr[41m10[49m [0m+ [33m8[39m[0m*[0mr[41mdi[49m [0m+ [33m160[39m[33m][39m[0m [0m⟪╋⟫[0m[0m    [96m[1mvpaddq[22m[39m    [0mymm3[0m, [0mymm3[0m, [95mymmword[39m [95mptr[39m [33m[[39m[0mr[42m9[49m [0m+ [33m8[39m[0m*[0mr[42mcx[49m [0m+ [33m160[39m[33m][39m[0m  
[0m[0m    [96m[1mvpaddq[22m[39m    [0mymm4[0m, [0mymm4[0m, [95mymmword[39m [95mptr[39m [33m[[39m[0mr[41m10[49m [0m+ [33m8[39m[0m*[0mr[41mdi[49m [0m+ [33m192[39m[33m][39m[0m [0m⟪╋⟫[0m[0m    [96m[1mvpaddq[22m[39m    [0mymm4[0m, [0mymm4[0m, [95mymmword[39m [95mptr[39m [33m[[39m[0mr[42m9[49m [0m+ [33m8[39m[0m*[0mr[42mcx[49m [0m+ [33m192[39m[33m][39m[0m  
[0m[0m    [96m[1mvpaddq[22m[39m    [0mymm5[0m, [0mymm5[0m, [95mymmword[39m [95mptr[39m [33m[[39m[0mr[41m10[49m [0m+ [33m8[39m[0m*[0mr[41mdi[49m [0m+ [33m224[39m[33m][39m[0m [0m⟪╋⟫[0m[0m    [96m[1mvpaddq[22m[39m    [0mymm5[0m, [0mymm5[0m, [95mymmword[39m [95mptr[39m [33m[[39m[0mr[42m9[49m [0m+ [33m8[39m[0m*[0mr[42mcx[49m [0m+ [33m224[39m[33m][39m[0m  
[0m[0m    [96m[1mvmovdqu[22m[39m    [95mymmword[39m [95mptr[39m [33m[[39m[0mr[41mbx[49m [0m+ [33m8[39m[0m*[0mr[41mdi[49m [0m+ [33m128[39m[33m][39m[0m, [0mymm2[0m      [0m⟪╋⟫[0m[0m    [96m[1mvmovdqu[22m[39m    [95mymmword[39m [95mptr[39m [33m[[39m[0mr[42m11[49m [0m+ [33m8[39m[0m*[0mr[42mcx[49m [0m+ [33m128[39m[33m][39m[0m, [0mymm2[0m      
[0m[0m    [96m[1mvmovdqu[22m[39m    [95mymmword[39m [95mptr[39m [33m[[39m[0mr[41mbx[49m [0m+ [33m8[39m[0m*[0mr[41mdi[49m [0m+ [33m160[39m[33m][39m[0m, [0mymm3[0m      [0m⟪╋⟫[0m[0m    [96m[1mvmovdqu[22m[39m    [95mymmword[39m [95mptr[39m [33m[[39m[0mr[42m11[49m [0m+ [33m8[39m[0m*[0mr[42mcx[49m [0m+ [33m160[39m[33m][39m[0m, [0mymm3[0m      
[0m[0m    [96m[1mvmovdqu[22m[39m    [95mymmword[39m [95mptr[39m [33m[[39m[0mr[41mbx[49m [0m+ [33m8[39m[0m*[0mr[41mdi[49m [0m+ [33m192[39m[33m][39m[0m, [0mymm4[0m      [0m⟪╋⟫[0m[0m    [96m[1mvmovdqu[22m[39m    [95mymmword[39m [95mptr[39m [33m[[39m[0mr[42m11[49m [0m+ [33m8[39m[0m*[0mr[42mcx[49m [0m+ [33m192[39m[33m][39m[0m, [0mymm4[0m      
[0m[0m    [96m[1mvmovdqu[22m[39m    [95mymmword[39m [95mptr[39m [33m[[39m[0mr[41mbx[49m [0m+ [33m8[39m[0m*[0mr[41mdi[49m [0m+ [33m224[39m[33m][39m[0m, [0mymm5[0m      [0m⟪╋⟫[0m[0m    [96m[1mvmovdqu[22m[39m    [95mymmword[39m [95mptr[39m [33m[[39m[0mr[42m11[49m [0m+ [33m8[39m[0m*[0mr[42mcx[49m [0m+ [33m224[39m[33m][39m[0m, [0mymm5[0m      
[0m[0m    [96m[1madd[22m[39m    [0mr[41mdi[0m, [33m32[39m[0m                                        [0m⟪╋⟫[0m[0m    [96m[1madd[22m[39m    [0mr[42mcx[0m, [33m32[39m[0m                                        
[0m[0m    [96m[1madd[22m[39m    [0mr[41m13[0m, [33m-2[39m[0m                                        [0m⟪╋⟫[0m[0m    [96m[1madd[22m[39m    [0mr[42mdi[0m, [33m-2[39m[0m                                        
[0m[0m    [96m[1mjne[22m[39m    [0m.LBB0_[41m20[49m[0m                                       [0m⟪╋⟫[0m[0m    [96m[1mjne[22m[39m    [0m.LBB0_[42m6[49m[0m                                        
[0m[0m    [96m[1mjmp[22m[39m    [0m.LBB0_21[0m                                       [0m⟪┫ [0m                                                          
[0m[0m[91m.LBB0_5:[39m[0m                                                  [0m⟪┫ [0m                                                          
[0m[0m    [96m[1mmov[22m[39m    [0mr9[0m, [95mqword[39m [95mptr[39m [33m[[39m[0mrbp [0m- [33m112[39m[33m][39m       [90m# 8-byte Reloa…[39m[0m⟪┫ [0m                                                          
[0m[0m    [96m[1mmov[22m[39m    [0mr13[0m, [95mqword[39m [95mptr[39m [33m[[39m[0mrbp [0m- [33m104[39m[33m][39m      [90m# 8-byte Reloa…[39m[0m⟪┫ [0m                                                          
[0m[0m    [96m[1mjmp[22m[39m    [0m.LBB0_6[0m                                        [0m⟪┫ [0m                                                          
[0m[0m[91m.LBB0_18:[39m[0m                                                 [0m⟪┫ [0m                                                          
[0m[0m    [96m[1mxor[22m[39m    [0medi[0m, [0medi[0m                                       [0m⟪┫ [0m                                                          
[0m[0m[91m.[41mLBB0_21[49m:[39m                               [90m# %middle.block.u…[39m[0m⟪╋⟫[0m[0m[91m[42m# %bb[49m.[42m7[49m:[42m [39m[49m                               [90m# %middle.block.u…[39m
[0m[0m    [96m[1mtest[22m[39m    [0m[41ma[49ml[0m, [33m1[39m[0m                                         [0m⟪╋⟫[0m[0m    [96m[1mtest[22m[39m    [0m[42msi[49ml[0m, [33m1[39m[0m                                        
[0m[0m    [96m[1mmov[22m[39m    [0mr13[0m, [95mqword[39m [95mptr[39m [33m[[39m[0mrbp [0m- [33m104[39m[33m][39m      [90m# 8-byte Reloa…[39m[0m⟪┫ [0m                                                          
[0m[0m    [96m[1mje[22m[39m    [0m.LBB0_[41m23[49m[0m                                        [0m⟪╋⟫[0m[0m    [96m[1mje[22m[39m    [0m.LBB0_[42m9[49m[0m                                         
[0m[0m[90m[41m# %bb[49m.[41m22[49m:                               # %vector.body.ep…[39m[0m⟪╋⟫[0m[0m[90m.[42mLBB0_8[49m:[42m [49m                               # %vector.body.ep…[39m
[0m[0m    [96m[1mvmovdqu[22m[39m    [0mymm2[0m, [95mymmword[39m [95mptr[39m [33m[[39m[0mr[41m15[49m [0m+ [33m8[39m[0m*[0mr[41mdi[33m[49m][39m[0m            [0m⟪╋⟫[0m[0m    [96m[1mvmovdqu[22m[39m    [0mymm2[0m, [95mymmword[39m [95mptr[39m [33m[[39m[0mr[42m8[49m [0m+ [33m8[39m[0m*[0mr[42mcx[33m[49m][39m[0m             
[0m[0m    [96m[1mvmovdqu[22m[39m    [0mymm3[0m, [95mymmword[39m [95mptr[39m [33m[[39m[0mr[41m15[49m [0m+ [33m8[39m[0m*[0mr[41mdi[49m [0m+ [33m32[39m[33m][39m[0m       [0m⟪╋⟫[0m[0m    [96m[1mvmovdqu[22m[39m    [0mymm3[0m, [95mymmword[39m [95mptr[39m [33m[[39m[0mr[42m8[49m [0m+ [33m8[39m[0m*[0mr[42mcx[49m [0m+ [33m32[39m[33m][39m[0m        
[0m[0m    [96m[1mvmovdqu[22m[39m    [0mymm4[0m, [95mymmword[39m [95mptr[39m [33m[[39m[0mr[41m15[49m [0m+ [33m8[39m[0m*[0mr[41mdi[49m [0m+ [33m64[39m[33m][39m[0m       [0m⟪╋⟫[0m[0m    [96m[1mvmovdqu[22m[39m    [0mymm4[0m, [95mymmword[39m [95mptr[39m [33m[[39m[0mr[42m8[49m [0m+ [33m8[39m[0m*[0mr[42mcx[49m [0m+ [33m64[39m[33m][39m[0m        
[0m[0m    [96m[1mvmovdqu[22m[39m    [0mymm5[0m, [95mymmword[39m [95mptr[39m [33m[[39m[0mr[41m15[49m [0m+ [33m8[39m[0m*[0mr[41mdi[49m [0m+ [33m96[39m[33m][39m[0m       [0m⟪╋⟫[0m[0m    [96m[1mvmovdqu[22m[39m    [0mymm5[0m, [95mymmword[39m [95mptr[39m [33m[[39m[0mr[42m8[49m [0m+ [33m8[39m[0m*[0mr[42mcx[49m [0m+ [33m96[39m[33m][39m[0m        
[0m[0m    [96m[1mvpmuludq[22m[39m    [0mymm6[0m, [0mymm2[0m, [0mymm1[0m                          [0m ┃ [0m[0m    [96m[1mvpmuludq[22m[39m    [0mymm6[0m, [0mymm2[0m, [0mymm1[0m                          
[0m[0m    [96m[1mvpsrlq[22m[39m    [0mymm7[0m, [0mymm2[0m, [33m32[39m[0m                              [0m ┃ [0m[0m    [96m[1mvpsrlq[22m[39m    [0mymm7[0m, [0mymm2[0m, [33m32[39m[0m                              
[0m[0m    [96m[1mvpmuludq[22m[39m    [0mymm7[0m, [0mymm7[0m, [0mymm0[0m                          [0m ┃ [0m[0m    [96m[1mvpmuludq[22m[39m    [0mymm7[0m, [0mymm7[0m, [0mymm0[0m                          
[0m[0m    [96m[1mvpaddq[22m[39m    [0mymm6[0m, [0mymm6[0m, [0mymm7[0m                            [0m ┃ [0m[0m    [96m[1mvpaddq[22m[39m    [0mymm6[0m, [0mymm6[0m, [0mymm7[0m                            
[0m[0m    [96m[1mvpsllq[22m[39m    [0mymm6[0m, [0mymm6[0m, [33m32[39m[0m                              [0m ┃ [0m[0m    [96m[1mvpsllq[22m[39m    [0mymm6[0m, [0mymm6[0m, [33m32[39m[0m                              
[0m[0m    [96m[1mvpmuludq[22m[39m    [0mymm2[0m, [0mymm2[0m, [0mymm0[0m                          [0m ┃ [0m[0m    [96m[1mvpmuludq[22m[39m    [0mymm2[0m, [0mymm2[0m, [0mymm0[0m                          
[0m[0m    [96m[1mvpaddq[22m[39m    [0mymm2[0m, [0mymm2[0m, [0mymm6[0m                            [0m ┃ [0m[0m    [96m[1mvpaddq[22m[39m    [0mymm2[0m, [0mymm2[0m, [0mymm6[0m                            
[0m[0m    [96m[1mvpmuludq[22m[39m    [0mymm6[0m, [0mymm3[0m, [0mymm1[0m                          [0m ┃ [0m[0m    [96m[1mvpmuludq[22m[39m    [0mymm6[0m, [0mymm3[0m, [0mymm1[0m                          
[0m[0m    [96m[1mvpsrlq[22m[39m    [0mymm7[0m, [0mymm3[0m, [33m32[39m[0m                              [0m ┃ [0m[0m    [96m[1mvpsrlq[22m[39m    [0mymm7[0m, [0mymm3[0m, [33m32[39m[0m                              
[0m[0m    [96m[1mvpmuludq[22m[39m    [0mymm7[0m, [0mymm7[0m, [0mymm0[0m                          [0m ┃ [0m[0m    [96m[1mvpmuludq[22m[39m    [0mymm7[0m, [0mymm7[0m, [0mymm0[0m                          
[0m[0m    [96m[1mvpaddq[22m[39m    [0mymm6[0m, [0mymm6[0m, [0mymm7[0m                            [0m ┃ [0m[0m    [96m[1mvpaddq[22m[39m    [0mymm6[0m, [0mymm6[0m, [0mymm7[0m                            
[0m[0m    [96m[1mvpsllq[22m[39m    [0mymm6[0m, [0mymm6[0m, [33m32[39m[0m                              [0m ┃ [0m[0m    [96m[1mvpsllq[22m[39m    [0mymm6[0m, [0mymm6[0m, [33m32[39m[0m                              
[0m[0m    [96m[1mvpmuludq[22m[39m    [0mymm3[0m, [0mymm3[0m, [0mymm0[0m                          [0m ┃ [0m[0m    [96m[1mvpmuludq[22m[39m    [0mymm3[0m, [0mymm3[0m, [0mymm0[0m                          
[0m[0m    [96m[1mvpaddq[22m[39m    [0mymm3[0m, [0mymm3[0m, [0mymm6[0m                            [0m ┃ [0m[0m    [96m[1mvpaddq[22m[39m    [0mymm3[0m, [0mymm3[0m, [0mymm6[0m                            
[0m[0m    [96m[1mvpmuludq[22m[39m    [0mymm6[0m, [0mymm4[0m, [0mymm1[0m                          [0m ┃ [0m[0m    [96m[1mvpmuludq[22m[39m    [0mymm6[0m, [0mymm4[0m, [0mymm1[0m                          
[0m[0m    [96m[1mvpsrlq[22m[39m    [0mymm7[0m, [0mymm4[0m, [33m32[39m[0m                              [0m ┃ [0m[0m    [96m[1mvpsrlq[22m[39m    [0mymm7[0m, [0mymm4[0m, [33m32[39m[0m                              
[0m[0m    [96m[1mvpmuludq[22m[39m    [0mymm7[0m, [0mymm7[0m, [0mymm0[0m                          [0m ┃ [0m[0m    [96m[1mvpmuludq[22m[39m    [0mymm7[0m, [0mymm7[0m, [0mymm0[0m                          
[0m[0m    [96m[1mvpaddq[22m[39m    [0mymm6[0m, [0mymm6[0m, [0mymm7[0m                            [0m ┃ [0m[0m    [96m[1mvpaddq[22m[39m    [0mymm6[0m, [0mymm6[0m, [0mymm7[0m                            
[0m[0m    [96m[1mvpsllq[22m[39m    [0mymm6[0m, [0mymm6[0m, [33m32[39m[0m                              [0m ┃ [0m[0m    [96m[1mvpsllq[22m[39m    [0mymm6[0m, [0mymm6[0m, [33m32[39m[0m                              
[0m[0m    [96m[1mvpmuludq[22m[39m    [0mymm4[0m, [0mymm4[0m, [0mymm0[0m                          [0m ┃ [0m[0m    [96m[1mvpmuludq[22m[39m    [0mymm4[0m, [0mymm4[0m, [0mymm0[0m                          
[0m[0m    [96m[1mvpaddq[22m[39m    [0mymm4[0m, [0mymm4[0m, [0mymm6[0m                            [0m ┃ [0m[0m    [96m[1mvpaddq[22m[39m    [0mymm4[0m, [0mymm4[0m, [0mymm6[0m                            
[0m[0m    [96m[1mvpmuludq[22m[39m    [0mymm1[0m, [0mymm5[0m, [0mymm1[0m                          [0m ┃ [0m[0m    [96m[1mvpmuludq[22m[39m    [0mymm1[0m, [0mymm5[0m, [0mymm1[0m                          
[0m[0m    [96m[1mvpsrlq[22m[39m    [0mymm6[0m, [0mymm5[0m, [33m32[39m[0m                              [0m ┃ [0m[0m    [96m[1mvpsrlq[22m[39m    [0mymm6[0m, [0mymm5[0m, [33m32[39m[0m                              
[0m[0m    [96m[1mvpmuludq[22m[39m    [0mymm6[0m, [0mymm6[0m, [0mymm0[0m                          [0m ┃ [0m[0m    [96m[1mvpmuludq[22m[39m    [0mymm6[0m, [0mymm6[0m, [0mymm0[0m                          
[0m[0m    [96m[1mvpaddq[22m[39m    [0mymm1[0m, [0mymm1[0m, [0mymm6[0m                            [0m ┃ [0m[0m    [96m[1mvpaddq[22m[39m    [0mymm1[0m, [0mymm1[0m, [0mymm6[0m                            
[0m[0m    [96m[1mvpsllq[22m[39m    [0mymm1[0m, [0mymm1[0m, [33m32[39m[0m                              [0m ┃ [0m[0m    [96m[1mvpsllq[22m[39m    [0mymm1[0m, [0mymm1[0m, [33m32[39m[0m                              
[0m[0m    [96m[1mvpmuludq[22m[39m    [0mymm0[0m, [0mymm5[0m, [0mymm0[0m                          [0m ┃ [0m[0m    [96m[1mvpmuludq[22m[39m    [0mymm0[0m, [0mymm5[0m, [0mymm0[0m                          
[0m[0m    [96m[1mvpaddq[22m[39m    [0mymm0[0m, [0mymm0[0m, [0mymm1[0m                            [0m ┃ [0m[0m    [96m[1mvpaddq[22m[39m    [0mymm0[0m, [0mymm0[0m, [0mymm1[0m                            
[0m[0m    [96m[1mvpaddq[22m[39m    [0mymm1[0m, [0mymm2[0m, [95mymmword[39m [95mptr[39m [33m[[39m[0mr[41m10[49m [0m+ [33m8[39m[0m*[0mr[41mdi[33m[49m][39m[0m       [0m⟪╋⟫[0m[0m    [96m[1mvpaddq[22m[39m    [0mymm1[0m, [0mymm2[0m, [95mymmword[39m [95mptr[39m [33m[[39m[0mr[42m9[49m [0m+ [33m8[39m[0m*[0mr[42mcx[33m[49m][39m[0m        
[0m[0m    [96m[1mvpaddq[22m[39m    [0mymm2[0m, [0mymm3[0m, [95mymmword[39m [95mptr[39m [33m[[39m[0mr[41m10[49m [0m+ [33m8[39m[0m*[0mr[41mdi[49m [0m+ [33m32[39m[33m][39m[0m  [0m⟪╋⟫[0m[0m    [96m[1mvpaddq[22m[39m    [0mymm2[0m, [0mymm3[0m, [95mymmword[39m [95mptr[39m [33m[[39m[0mr[42m9[49m [0m+ [33m8[39m[0m*[0mr[42mcx[49m [0m+ [33m32[39m[33m][39m[0m   
[0m[0m    [96m[1mvpaddq[22m[39m    [0mymm3[0m, [0mymm4[0m, [95mymmword[39m [95mptr[39m [33m[[39m[0mr[41m10[49m [0m+ [33m8[39m[0m*[0mr[41mdi[49m [0m+ [33m64[39m[33m][39m[0m  [0m⟪╋⟫[0m[0m    [96m[1mvpaddq[22m[39m    [0mymm3[0m, [0mymm4[0m, [95mymmword[39m [95mptr[39m [33m[[39m[0mr[42m9[49m [0m+ [33m8[39m[0m*[0mr[42mcx[49m [0m+ [33m64[39m[33m][39m[0m   
[0m[0m    [96m[1mvpaddq[22m[39m    [0mymm0[0m, [0mymm0[0m, [95mymmword[39m [95mptr[39m [33m[[39m[0mr[41m10[49m [0m+ [33m8[39m[0m*[0mr[41mdi[49m [0m+ [33m96[39m[33m][39m[0m  [0m⟪╋⟫[0m[0m    [96m[1mvpaddq[22m[39m    [0mymm0[0m, [0mymm0[0m, [95mymmword[39m [95mptr[39m [33m[[39m[0mr[42m9[49m [0m+ [33m8[39m[0m*[0mr[42mcx[49m [0m+ [33m96[39m[33m][39m[0m   
[0m[0m    [96m[1mvmovdqu[22m[39m    [95mymmword[39m [95mptr[39m [33m[[39m[0mr[41mbx[49m [0m+ [33m8[39m[0m*[0mr[41mdi[33m[49m][39m[0m, [0mymm1[0m            [0m⟪╋⟫[0m[0m    [96m[1mvmovdqu[22m[39m    [95mymmword[39m [95mptr[39m [33m[[39m[0mr[42m11[49m [0m+ [33m8[39m[0m*[0mr[42mcx[33m[49m][39m[0m, [0mymm1[0m            
[0m[0m    [96m[1mvmovdqu[22m[39m    [95mymmword[39m [95mptr[39m [33m[[39m[0mr[41mbx[49m [0m+ [33m8[39m[0m*[0mr[41mdi[49m [0m+ [33m32[39m[33m][39m[0m, [0mymm2[0m       [0m⟪╋⟫[0m[0m    [96m[1mvmovdqu[22m[39m    [95mymmword[39m [95mptr[39m [33m[[39m[0mr[42m11[49m [0m+ [33m8[39m[0m*[0mr[42mcx[49m [0m+ [33m32[39m[33m][39m[0m, [0mymm2[0m       
[0m[0m    [96m[1mvmovdqu[22m[39m    [95mymmword[39m [95mptr[39m [33m[[39m[0mr[41mbx[49m [0m+ [33m8[39m[0m*[0mr[41mdi[49m [0m+ [33m64[39m[33m][39m[0m, [0mymm3[0m       [0m⟪╋⟫[0m[0m    [96m[1mvmovdqu[22m[39m    [95mymmword[39m [95mptr[39m [33m[[39m[0mr[42m11[49m [0m+ [33m8[39m[0m*[0mr[42mcx[49m [0m+ [33m64[39m[33m][39m[0m, [0mymm3[0m       
[0m[0m    [96m[1mvmovdqu[22m[39m    [95mymmword[39m [95mptr[39m [33m[[39m[0mr[41mbx[49m [0m+ [33m8[39m[0m*[0mr[41mdi[49m [0m+ [33m96[39m[33m][39m[0m, [0mymm0[0m       [0m⟪╋⟫[0m[0m    [96m[1mvmovdqu[22m[39m    [95mymmword[39m [95mptr[39m [33m[[39m[0mr[42m11[49m [0m+ [33m8[39m[0m*[0mr[42mcx[49m [0m+ [33m96[39m[33m][39m[0m, [0mymm0[0m       
[0m[0m[91m.LBB0_[41m23[49m:[39m                               [90m# %middle.block[39m[0m   [0m⟪╋⟫[0m[0m[91m.LBB0_[42m9[49m:[42m [39m[49m                               [90m# %middle.block[39m[0m   
[0m[0m    [96m[1mlea[22m[39m    [0mrdi[0m, [33m[[39m[0mrsi [0m+ [33m1[39m[33m][39m[0m                                 [0m⟪┫ [0m                                                          
[0m[0m    [96m[1mcmp[22m[39m    [0mr1[41m2[0m, [0mr[41msi[49m[0m                                       [0m⟪╋⟫[0m[0m    [96m[1mcmp[22m[39m    [0mr1[42m0[0m, [0mr[42max[49m[0m                                       
[0m[0m    [96m[1mj[41mn[49me[22m[39m    [0m.LBB0_[41m6[49m[0m                                        [0m⟪╋⟫[0m[0m    [96m[1mje[22m[39m    [0m.LBB0_[42m11[49m[0m                                        
[0m[0m[90m# %bb.24:[39m[0m                                                 [0m⟪┫ [0m                                                          
[0m[0m    [96m[1mmov[22m[39m    [0mrax[0m, [0mr12[0m                                       [0m⟪┫ [0m                                                          
[0m[0m    [96m[1mjmp[22m[39m    [0m.LBB0_9[0m                                        [0m⟪┫ [0m                                                          
[0m[0m[91m.LBB0_[41m25[49m:[39m                               [90m# %[41moob[49m[39m[0m            [0m⟪╋⟫[0m[0m[91m.LBB0_[42m10[49m:[39m                               [90m# %[42mL12[49m[39m[0m            
[0m[0m    [96m[1mmov[22m[39m    [0meax[0m, [33m16[39m[0m                                        [0m⟪┫ [0m                                                          
[0m[0m    [96m[1mmovabs[22m[39m    [0mr11[0m, [95moffset[39m [0m___chkstk_ms[0m                    [0m⟪┫ [0m                                                          
[0m[0m    [96m[1mcall[22m[39m    [0mr11[0m                                           [0m⟪┫ [0m                                                          
[0m[0m    [96m[1msub[22m[39m    [0mrsp[0m, [0mrax[0m                                       [0m⟪┫ [0m                                                          
[0m[0m    [96m[1mmov[22m[39m    [0mrdx[0m, [0mrsp[0m                                       [0m⟪┫ [0m                                                          
[0m[0m    [96m[1mmov[22m[39m    [95mqword[39m [95mptr[39m [33m[[39m[0mrdx[33m][39m[0m, [0mrdi[0m                           [0m⟪┫ [0m                                                          
[0m[0m    [96m[1msub[22m[39m    [0mrsp[0m, [33m32[39m[0m                                        [0m⟪┫ [0m                                                          
[0m[0m    [96m[1mmovabs[22m[39m    [0mrax[0m, [95moffset[39m [93mijl_bounds_error_ints[39m[0m           [0m⟪┫ [0m                                                          
[0m[0m    [96m[1mmov[22m[39m    [0mr8d[0m, [33m1[39m[0m                                         [0m⟪┫ [0m                                                          
[0m[0m    [96m[1mmov[22m[39m    [0mrcx[0m, [0mr13[0m                                       [0m⟪┫ [0m                                                          
[0m[0m    [96m[1mvzeroupper[22m[39m[0m                                            [0m⟪┫ [0m                                                          
[0m[0m    [96m[1mcall[22m[39m    [0mrax[0m                                           [0m⟪┫ [0m                                                          
[0m[0m[91m.LBB0_[41m26[49m:[39m                               [90m# %[41moob10[49m[39m[0m          [0m⟪╋⟫[0m[0m[91m.LBB0_[42m11[49m:[39m                               [90m# %[42mL32[49m[39m[0m            
[0m[0m    [96m[1mmov[22m[39m    [0meax[0m, [33m16[39m[0m                                        [0m⟪┫ [0m                                                          
[0m[0m    [96m[1mmovabs[22m[39m    [0mr11[0m, [95moffset[39m [0m___chkstk_ms[0m                    [0m⟪┫ [0m                                                          
[0m[0m    [96m[1mcall[22m[39m    [0mr11[0m                                           [0m⟪┫ [0m                                                          
[0m[0m    [96m[1msub[22m[39m    [0mrsp[0m, [0mrax[0m                                       [0m⟪┫ [0m                                                          
[0m[0m    [96m[1mmov[22m[39m    [0mrdx[0m, [0mrsp[0m                                       [0m⟪┫ [0m                                                          
[0m[0m    [96m[1mmov[22m[39m    [95mqword[39m [95mptr[39m [33m[[39m[0mrdx[33m][39m[0m, [0mrdi[0m                           [0m⟪┫ [0m                                                          
[0m[0m    [96m[1m[41msub[22m[39m[49m    [0mrsp[0m, [33m32[39m[0m                                        [0m⟪╋⟫[0m[0m    [96m[1m[42madd[22m[39m[49m    [0mrsp[0m, [33m32[39m[0m                                        
[0m[0m    [96m[1mmovabs[22m[39m    [0mrax[0m, [95moffset[39m [93mijl_bounds_error_ints[39m[0m           [0m⟪┫ [0m                                                          
[0m[0m    [96m[1mmov[22m[39m    [0mr8d[0m, [33m1[39m[0m                                         [0m⟪┫ [0m                                                          
[0m[0m    [96m[1mmov[22m[39m    [0mrcx[0m, [0mr9[0m                                        [0m⟪┫ [0m                                                          
[0m[0m    [96m[1mvzeroupper[22m[39m[0m                                            [0m⟪┫ [0m                                                          
[0m[0m    [96m[1mcall[22m[39m    [0mrax[0m                                           [0m⟪┫ [0m                                                          
[0m[0m[91m.LBB0_27:[39m                               [90m# %oob19[39m[0m          [0m⟪┫ [0m                                                          
[0m[0m    [96m[1mmov[22m[39m    [0meax[0m, [33m16[39m[0m                                        [0m⟪┫ [0m                                                          
[0m[0m    [96m[1mmovabs[22m[39m    [0mr11[0m, [95moffset[39m [0m___chkstk_ms[0m                    [0m⟪┫ [0m                                                          
[0m[0m    [96m[1mcall[22m[39m    [0mr11[0m                                           [0m⟪┫ [0m                                                          
[0m[0m    [96m[1msub[22m[39m    [0mrsp[0m, [0mrax[0m                                       [0m⟪┫ [0m                                                          
[0m[0m    [96m[1mmov[22m[39m    [0mrdx[0m, [0mrsp[0m                                       [0m⟪┫ [0m                                                          
[0m[0m    [96m[1mmov[22m[39m    [95mqword[39m [95mptr[39m [33m[[39m[0mrdx[33m][39m[0m, [0mrdi[0m                           [0m⟪┫ [0m                                                          
[0m[0m    [96m[1msub[22m[39m    [0mrsp[0m, [33m32[39m[0m                                        [0m⟪┫ [0m                                                          
[0m[0m    [96m[1mmovabs[22m[39m    [0mrax[0m, [95moffset[39m [93mijl_bounds_error_ints[39m[0m           [0m⟪┫ [0m                                                          
[0m[0m    [96m[1mmov[22m[39m    [0mr8d[0m, [33m1[39m[0m                                         [0m⟪┫ [0m                                                          
[0m                                                          [0m ┣⟫[0m[0m    [0m.p2align    [33m4[39m[0m, [33m0x90[39m[0m                                   
[0m                                                          [0m ┣⟫[0m[0m                                        [90m# =>This Inner Lo…[39m
[0m                                                          [0m ┣⟫[0m[0m    [96m[1mmov[22m[39m    [0mrcx[0m, [95mqword[39m [95mptr[39m [33m[[39m[0mr8 [0m+ [33m8[39m[0m*[0mrax[33m][39m[0m                    
[0m                                                          [0m ┣⟫[0m[0m    [96m[1mimul[22m[39m    [0mrcx[0m, [0mrdx[0m                                      
[0m                                                          [0m ┣⟫[0m[0m    [96m[1madd[22m[39m    [0mrcx[0m, [95mqword[39m [95mptr[39m [33m[[39m[0mr9 [0m+ [33m8[39m[0m*[0mrax[33m][39m[0m                    
[0m                                                          [0m ┣⟫[0m[0m    [96m[1mmov[22m[39m    [95mqword[39m [95mptr[39m [33m[[39m[0mr11 [0m+ [33m8[39m[0m*[0mrax[33m][39m[0m, [0mrcx[0m                   
[0m                                                          [0m ┣⟫[0m[0m    [96m[1minc[22m[39m    [0mrax[0m                                            
[0m                                                          [0m ┣⟫[0m[0m    [96m[1mcmp[22m[39m    [0mr10[0m, [0mrax[0m                                       
[0m                                                          [0m ┣⟫[0m[0m    [96m[1mjne[22m[39m    [0m.LBB0_10[0m                                       
[0m                                                          [0m ┣⟫[0m[0m    [96m[1mvmovaps[22m[39m    [0mxmm6[0m, [95mxmmword[39m [95mptr[39m [33m[[39m[0mrbp [0m- [33m48[39m[33m][39m    [90m# 16-byte …[39m
[0m                                                          [0m ┣⟫[0m[0m    [96m[1mvmovaps[22m[39m    [0mxmm7[0m, [95mxmmword[39m [95mptr[39m [33m[[39m[0mrbp [0m- [33m32[39m[33m][39m    [90m# 16-byte …[39m
[0m                                                          [0m ┣⟫[0m[0m    [96m[1mpop[22m[39m    [0mrdi[0m                                            
[0m                                                          [0m ┣⟫[0m[0m    [96m[1mpop[22m[39m    [0mrsi[0m                                            
[0m                                                          [0m ┣⟫[0m[0m    [96m[1mpop[22m[39m    [0mrbp[0m                                            
[0m[0m    [96m[1mvzeroupper[22m[39m[0m                                            [0m ┃ [0m[0m    [96m[1mvzeroupper[22m[39m[0m                                            
[0m[0m    [96m[1mcall[22m[39m    [0mrax[0m                                           [0m⟪┫ [0m                                                          
[0m                                                          [0m ┣⟫[0m[0m    [96m[1mret[22m[39m[0m                                                   
[0m                                                          [0m ┣⟫[0m[0m[91m.LBB0_4:[39m[0m                                                  
[0m                                                          [0m ┣⟫[0m[0m    [96m[1mxor[22m[39m    [0mecx[0m, [0mecx[0m                                       
[0m                                                          [0m ┣⟫[0m[0m    [96m[1mtest[22m[39m    [0msil[0m, [33m1[39m[0m                                        
[0m                                                          [0m ┣⟫[0m[0m    [96m[1mje[22m[39m    [0m.LBB0_9[0m                                         
[0m                                                          [0m ┣⟫[0m[0m    [96m[1mjmp[22m[39m    [0m.LBB0_8[0m                                        
[0m[0m[91m.Lfunc_end0:[39m[0m                                              [0m ┃ [0m[0m[91m.Lfunc_end0:[39m[0m                                              
[0m[0m    [0m.size    [0msaxpy[0m[0m, .Lfunc_end0-saxpy[0m                     [0m⟪╋⟫[0m[0m    [0m.size    [0msaxpy[0m[42m_s[0m[42mimd[49m, .Lfunc_end0-saxpy[42m_simd[49m[0m           
[0m[0m    [0m.cfi_endproc[0m                                          [0m ┃ [0m[0m    [0m.cfi_endproc[0m                                          
[0m[0m                                        [90m# -- End function[39m[0m [0m ┃ [0m[0m                                        [90m# -- End function[39m[0m 
[0m[0m    [0m.section    [0m".note.GNU-stack"[0m,[0m""[0m,[0m@progbits[0m            [0m ┃ [0m[0m    [0m.section    [0m".note.GNU-stack"[0m,[0m""[0m,[0m@progbits[0m            
[0m                                                          [0m ┃ [0m                                                          